target datalayout = "e-m:e-p270:32:32-p271:32:32-p272:64:64-i64:64-i128:128-f80:128-n8:16:32:64-S128"
target triple = "x86_64-pc-linux-gnu"

%"class.ncnn::HardSigmoid" = type { %"class.ncnn::Layer", float, float, float, float }
%"class.ncnn::Layer" = type { ptr, i8, i8, i8, i8, i8, i8, i8, i8, i8, i8, i8, i8, i8, i8, i8, i8, i8, i8, i8, i8, i32, ptr, i32, %"class.std::__cxx11::basic_string", %"class.std::__cxx11::basic_string", %"class.std::vector", %"class.std::vector", %"class.std::vector.3", %"class.std::vector.3" }
%"class.std::__cxx11::basic_string" = type { %"struct.std::__cxx11::basic_string<char>::_Alloc_hider", i64, %union.anon }
%"struct.std::__cxx11::basic_string<char>::_Alloc_hider" = type { ptr }
%union.anon = type { i64, [8 x i8] }
%"class.std::vector" = type { %"struct.std::_Vector_base" }
%"struct.std::_Vector_base" = type { %"struct.std::_Vector_base<int, std::allocator<int>>::_Vector_impl" }
%"struct.std::_Vector_base<int, std::allocator<int>>::_Vector_impl" = type { %"struct.std::_Vector_base<int, std::allocator<int>>::_Vector_impl_data" }
%"struct.std::_Vector_base<int, std::allocator<int>>::_Vector_impl_data" = type { ptr, ptr, ptr }
%"class.std::vector.3" = type { %"struct.std::_Vector_base.4" }
%"struct.std::_Vector_base.4" = type { %"struct.std::_Vector_base<ncnn::Mat, std::allocator<ncnn::Mat>>::_Vector_impl" }
%"struct.std::_Vector_base<ncnn::Mat, std::allocator<ncnn::Mat>>::_Vector_impl" = type { %"struct.std::_Vector_base<ncnn::Mat, std::allocator<ncnn::Mat>>::_Vector_impl_data" }
%"struct.std::_Vector_base<ncnn::Mat, std::allocator<ncnn::Mat>>::_Vector_impl_data" = type { ptr, ptr, ptr }

; Function Attrs: mustprogress uwtable
define hidden noundef i32 @_ZN4ncnn11HardSigmoid10load_paramERKNS_9ParamDictE(ptr noundef nonnull align 8 dereferenceable(224) %0, ptr noundef nonnull align 8 dereferenceable(16) %1) unnamed_addr #2 align 2 {
  %3 = alloca ptr, align 8
  %4 = alloca ptr, align 8
  store ptr %0, ptr %3, align 8, !tbaa !4
  store ptr %1, ptr %4, align 8, !tbaa !9
  %5 = load ptr, ptr %3, align 8
  %6 = load ptr, ptr %4, align 8, !tbaa !9
  %7 = call fast noundef nofpclass(nan inf) float @_ZNK4ncnn9ParamDict3getEif(ptr noundef nonnull align 8 dereferenceable(16) %6, i32 noundef 0, float noundef nofpclass(nan inf) 0x3FC99999A0000000)
  %8 = getelementptr inbounds nuw %"class.ncnn::HardSigmoid", ptr %5, i32 0, i32 1
  store float %7, ptr %8, align 8, !tbaa !11
  %9 = load ptr, ptr %4, align 8, !tbaa !9
  %10 = call fast noundef nofpclass(nan inf) float @_ZNK4ncnn9ParamDict3getEif(ptr noundef nonnull align 8 dereferenceable(16) %9, i32 noundef 1, float noundef nofpclass(nan inf) 5.000000e-01)
  %11 = getelementptr inbounds nuw %"class.ncnn::HardSigmoid", ptr %5, i32 0, i32 2
  store float %10, ptr %11, align 4, !tbaa !31
  %12 = getelementptr inbounds nuw %"class.ncnn::HardSigmoid", ptr %5, i32 0, i32 2
  %13 = load float, ptr %12, align 4, !tbaa !31
  %14 = fneg fast float %13
  %15 = getelementptr inbounds nuw %"class.ncnn::HardSigmoid", ptr %5, i32 0, i32 1
  %16 = load float, ptr %15, align 8, !tbaa !11
  %17 = fdiv fast float %14, %16
  %18 = getelementptr inbounds nuw %"class.ncnn::HardSigmoid", ptr %5, i32 0, i32 3
  store float %17, ptr %18, align 8, !tbaa !32
  %19 = getelementptr inbounds nuw %"class.ncnn::HardSigmoid", ptr %5, i32 0, i32 1
  %20 = load float, ptr %19, align 8, !tbaa !11
  %21 = fdiv fast float 1.000000e+00, %20
  %22 = getelementptr inbounds nuw %"class.ncnn::HardSigmoid", ptr %5, i32 0, i32 3
  %23 = load float, ptr %22, align 8, !tbaa !32
  %24 = fadd fast float %21, %23
  %25 = getelementptr inbounds nuw %"class.ncnn::HardSigmoid", ptr %5, i32 0, i32 4
  store float %24, ptr %25, align 4, !tbaa !33
  ret i32 0
}